; ModuleID = 'source-C-CXX/46/5924.cpp'
source_filename = "source-C-CXX/46/5924.cpp"
target datalayout = "e-m:e-p270:32:32-p271:32:32-p272:64:64-i64:64-f80:128-n8:16:32:64-S128"
target triple = "x86_64-pc-linux-gnu"

%"class.std::ios_base::Init" = type { i8 }
%"class.std::basic_istream" = type { i32 (...)**, i64, %"class.std::basic_ios" }
%"class.std::basic_ios" = type { %"class.std::ios_base", %"class.std::basic_ostream"*, i8, i8, %"class.std::basic_streambuf"*, %"class.std::ctype"*, %"class.std::num_put"*, %"class.std::num_get"* }
%"class.std::ios_base" = type { i32 (...)**, i64, i64, i32, i32, i32, %"struct.std::ios_base::_Callback_list"*, %"struct.std::ios_base::_Words", [8 x %"struct.std::ios_base::_Words"], i32, %"struct.std::ios_base::_Words"*, %"class.std::locale" }
%"struct.std::ios_base::_Callback_list" = type { %"struct.std::ios_base::_Callback_list"*, void (i32, %"class.std::ios_base"*, i32)*, i32, i32 }
%"struct.std::ios_base::_Words" = type { i8*, i64 }
%"class.std::locale" = type { %"class.std::locale::_Impl"* }
%"class.std::locale::_Impl" = type { i32, %"class.std::locale::facet"**, i64, %"class.std::locale::facet"**, i8** }
%"class.std::locale::facet" = type <{ i32 (...)**, i32, [4 x i8] }>
%"class.std::basic_ostream" = type { i32 (...)**, %"class.std::basic_ios" }
%"class.std::basic_streambuf" = type { i32 (...)**, i8*, i8*, i8*, i8*, i8*, i8*, %"class.std::locale" }
%"class.std::ctype" = type <{ %"class.std::locale::facet.base", [4 x i8], %struct.__locale_struct*, i8, [7 x i8], i32*, i32*, i16*, i8, [256 x i8], [256 x i8], i8, [6 x i8] }>
%"class.std::locale::facet.base" = type <{ i32 (...)**, i32 }>
%struct.__locale_struct = type { [13 x %struct.__locale_data*], i16*, i32*, i32*, [13 x i8*] }
%struct.__locale_data = type opaque
%"class.std::num_put" = type { %"class.std::locale::facet.base", [4 x i8] }
%"class.std::num_get" = type { %"class.std::locale::facet.base", [4 x i8] }

@_ZStL8__ioinit = internal global %"class.std::ios_base::Init" zeroinitializer, align 1
@__dso_handle = external hidden global i8
@_ZSt3cin = external global %"class.std::basic_istream", align 8
@_ZSt4cout = external global %"class.std::basic_ostream", align 8
@.str = private unnamed_addr constant [2 x i8] c" \00", align 1
@llvm.global_ctors = appending global [1 x { i32, void ()*, i8* }] [{ i32, void ()*, i8* } { i32 65535, void ()* @_GLOBAL__sub_I_5924.cpp, i8* null }]

declare void @_ZNSt8ios_base4InitC1Ev(%"class.std::ios_base::Init"* nonnull align 1 dereferenceable(1)) unnamed_addr #0

; Function Attrs: nounwind
declare void @_ZNSt8ios_base4InitD1Ev(%"class.std::ios_base::Init"* nonnull align 1 dereferenceable(1)) unnamed_addr #1

; Function Attrs: nofree nounwind
declare i32 @__cxa_atexit(void (i8*)*, i8*, i8*) local_unnamed_addr #2

; Function Attrs: mustprogress norecurse sspstrong uwtable
define dso_local i32 @main() local_unnamed_addr #3 {
  %1 = alloca [100 x i32], align 16
  %2 = alloca i32, align 4
  %3 = bitcast [100 x i32]* %1 to i8*
  call void @llvm.lifetime.start.p0i8(i64 400, i8* nonnull %3) #7
  %4 = bitcast i32* %2 to i8*
  call void @llvm.lifetime.start.p0i8(i64 4, i8* nonnull %4) #7
  %5 = call nonnull align 8 dereferenceable(16) %"class.std::basic_istream"* @_ZNSirsERi(%"class.std::basic_istream"* nonnull align 8 dereferenceable(16) @_ZSt3cin, i32* nonnull align 4 dereferenceable(4) %2)
  %6 = load i32, i32* %2, align 4, !tbaa !5
  %7 = icmp eq i32 %6, 10
  br i1 %7, label %71, label %8

8:                                                ; preds = %0
  %9 = icmp sgt i32 %6, 0
  br i1 %9, label %17, label %124

10:                                               ; preds = %17
  %11 = getelementptr inbounds [100 x i32], [100 x i32]* %1, i64 0, i64 0
  %12 = icmp sgt i32 %22, 0
  br i1 %12, label %13, label %124

13:                                               ; preds = %10
  %14 = icmp eq i32 %22, 1
  br i1 %14, label %25, label %15

15:                                               ; preds = %13
  %16 = zext i32 %22 to i64
  br label %53

17:                                               ; preds = %8, %17
  %18 = phi i64 [ %21, %17 ], [ 0, %8 ]
  %19 = getelementptr inbounds [100 x i32], [100 x i32]* %1, i64 0, i64 %18
  %20 = call nonnull align 8 dereferenceable(16) %"class.std::basic_istream"* @_ZNSirsERi(%"class.std::basic_istream"* nonnull align 8 dereferenceable(16) @_ZSt3cin, i32* nonnull align 4 dereferenceable(4) %19)
  %21 = add nuw nsw i64 %18, 1
  %22 = load i32, i32* %2, align 4, !tbaa !5
  %23 = sext i32 %22 to i64
  %24 = icmp slt i64 %21, %23
  br i1 %24, label %17, label %10, !llvm.loop !9

25:                                               ; preds = %53, %13
  %26 = load i32, i32* %11, align 16, !tbaa !5
  %27 = call nonnull align 8 dereferenceable(8) %"class.std::basic_ostream"* @_ZNSolsEi(%"class.std::basic_ostream"* nonnull align 8 dereferenceable(8) @_ZSt4cout, i32 %26)
  %28 = bitcast %"class.std::basic_ostream"* %27 to i8**
  %29 = load i8*, i8** %28, align 8, !tbaa !11
  %30 = getelementptr i8, i8* %29, i64 -24
  %31 = bitcast i8* %30 to i64*
  %32 = load i64, i64* %31, align 8
  %33 = bitcast %"class.std::basic_ostream"* %27 to i8*
  %34 = add nsw i64 %32, 240
  %35 = getelementptr inbounds i8, i8* %33, i64 %34
  %36 = bitcast i8* %35 to %"class.std::ctype"**
  %37 = load %"class.std::ctype"*, %"class.std::ctype"** %36, align 8, !tbaa !13
  %38 = icmp eq %"class.std::ctype"* %37, null
  br i1 %38, label %39, label %40

39:                                               ; preds = %25
  call void @_ZSt16__throw_bad_castv() #8
  unreachable

40:                                               ; preds = %25
  %41 = getelementptr inbounds %"class.std::ctype", %"class.std::ctype"* %37, i64 0, i32 8
  %42 = load i8, i8* %41, align 8, !tbaa !17
  %43 = icmp eq i8 %42, 0
  br i1 %43, label %47, label %44

44:                                               ; preds = %40
  %45 = getelementptr inbounds %"class.std::ctype", %"class.std::ctype"* %37, i64 0, i32 9, i64 10
  %46 = load i8, i8* %45, align 1, !tbaa !19
  br label %118

47:                                               ; preds = %40
  call void @_ZNKSt5ctypeIcE13_M_widen_initEv(%"class.std::ctype"* nonnull align 8 dereferenceable(570) %37)
  %48 = bitcast %"class.std::ctype"* %37 to i8 (%"class.std::ctype"*, i8)***
  %49 = load i8 (%"class.std::ctype"*, i8)**, i8 (%"class.std::ctype"*, i8)*** %48, align 8, !tbaa !11
  %50 = getelementptr inbounds i8 (%"class.std::ctype"*, i8)*, i8 (%"class.std::ctype"*, i8)** %49, i64 6
  %51 = load i8 (%"class.std::ctype"*, i8)*, i8 (%"class.std::ctype"*, i8)** %50, align 8
  %52 = call signext i8 %51(%"class.std::ctype"* nonnull align 8 dereferenceable(570) %37, i8 signext 10)
  br label %118

53:                                               ; preds = %15, %53
  %54 = phi i32 [ %22, %15 ], [ %56, %53 ]
  %55 = phi i64 [ %16, %15 ], [ %62, %53 ]
  %56 = add nsw i32 %54, -1
  %57 = zext i32 %56 to i64
  %58 = getelementptr inbounds [100 x i32], [100 x i32]* %1, i64 0, i64 %57
  %59 = load i32, i32* %58, align 4, !tbaa !5
  %60 = call nonnull align 8 dereferenceable(8) %"class.std::basic_ostream"* @_ZNSolsEi(%"class.std::basic_ostream"* nonnull align 8 dereferenceable(8) @_ZSt4cout, i32 %59)
  %61 = call nonnull align 8 dereferenceable(8) %"class.std::basic_ostream"* @_ZSt16__ostream_insertIcSt11char_traitsIcEERSt13basic_ostreamIT_T0_ES6_PKS3_l(%"class.std::basic_ostream"* nonnull align 8 dereferenceable(8) %60, i8* nonnull getelementptr inbounds ([2 x i8], [2 x i8]* @.str, i64 0, i64 0), i64 1)
  %62 = add nsw i64 %55, -1
  %63 = icmp eq i64 %62, 1
  br i1 %63, label %25, label %53

64:                                               ; preds = %71
  %65 = getelementptr inbounds [100 x i32], [100 x i32]* %1, i64 0, i64 0
  %66 = icmp sgt i32 %76, -1
  br i1 %66, label %67, label %124

67:                                               ; preds = %64
  %68 = icmp eq i32 %76, 0
  br i1 %68, label %79, label %69

69:                                               ; preds = %67
  %70 = zext i32 %76 to i64
  br label %107

71:                                               ; preds = %0, %71
  %72 = phi i64 [ %75, %71 ], [ 0, %0 ]
  %73 = getelementptr inbounds [100 x i32], [100 x i32]* %1, i64 0, i64 %72
  %74 = call nonnull align 8 dereferenceable(16) %"class.std::basic_istream"* @_ZNSirsERi(%"class.std::basic_istream"* nonnull align 8 dereferenceable(16) @_ZSt3cin, i32* nonnull align 4 dereferenceable(4) %73)
  %75 = add nuw nsw i64 %72, 1
  %76 = load i32, i32* %2, align 4, !tbaa !5
  %77 = sext i32 %76 to i64
  %78 = icmp slt i64 %72, %77
  br i1 %78, label %71, label %64, !llvm.loop !20

79:                                               ; preds = %107, %67
  %80 = load i32, i32* %65, align 16, !tbaa !5
  %81 = call nonnull align 8 dereferenceable(8) %"class.std::basic_ostream"* @_ZNSolsEi(%"class.std::basic_ostream"* nonnull align 8 dereferenceable(8) @_ZSt4cout, i32 %80)
  %82 = bitcast %"class.std::basic_ostream"* %81 to i8**
  %83 = load i8*, i8** %82, align 8, !tbaa !11
  %84 = getelementptr i8, i8* %83, i64 -24
  %85 = bitcast i8* %84 to i64*
  %86 = load i64, i64* %85, align 8
  %87 = bitcast %"class.std::basic_ostream"* %81 to i8*
  %88 = add nsw i64 %86, 240
  %89 = getelementptr inbounds i8, i8* %87, i64 %88
  %90 = bitcast i8* %89 to %"class.std::ctype"**
  %91 = load %"class.std::ctype"*, %"class.std::ctype"** %90, align 8, !tbaa !13
  %92 = icmp eq %"class.std::ctype"* %91, null
  br i1 %92, label %93, label %94

93:                                               ; preds = %79
  call void @_ZSt16__throw_bad_castv() #8
  unreachable

94:                                               ; preds = %79
  %95 = getelementptr inbounds %"class.std::ctype", %"class.std::ctype"* %91, i64 0, i32 8
  %96 = load i8, i8* %95, align 8, !tbaa !17
  %97 = icmp eq i8 %96, 0
  br i1 %97, label %101, label %98

98:                                               ; preds = %94
  %99 = getelementptr inbounds %"class.std::ctype", %"class.std::ctype"* %91, i64 0, i32 9, i64 10
  %100 = load i8, i8* %99, align 1, !tbaa !19
  br label %115

101:                                              ; preds = %94
  call void @_ZNKSt5ctypeIcE13_M_widen_initEv(%"class.std::ctype"* nonnull align 8 dereferenceable(570) %91)
  %102 = bitcast %"class.std::ctype"* %91 to i8 (%"class.std::ctype"*, i8)***
  %103 = load i8 (%"class.std::ctype"*, i8)**, i8 (%"class.std::ctype"*, i8)*** %102, align 8, !tbaa !11
  %104 = getelementptr inbounds i8 (%"class.std::ctype"*, i8)*, i8 (%"class.std::ctype"*, i8)** %103, i64 6
  %105 = load i8 (%"class.std::ctype"*, i8)*, i8 (%"class.std::ctype"*, i8)** %104, align 8
  %106 = call signext i8 %105(%"class.std::ctype"* nonnull align 8 dereferenceable(570) %91, i8 signext 10)
  br label %115

107:                                              ; preds = %69, %107
  %108 = phi i64 [ %70, %69 ], [ %113, %107 ]
  %109 = getelementptr inbounds [100 x i32], [100 x i32]* %1, i64 0, i64 %108
  %110 = load i32, i32* %109, align 4, !tbaa !5
  %111 = call nonnull align 8 dereferenceable(8) %"class.std::basic_ostream"* @_ZNSolsEi(%"class.std::basic_ostream"* nonnull align 8 dereferenceable(8) @_ZSt4cout, i32 %110)
  %112 = call nonnull align 8 dereferenceable(8) %"class.std::basic_ostream"* @_ZSt16__ostream_insertIcSt11char_traitsIcEERSt13basic_ostreamIT_T0_ES6_PKS3_l(%"class.std::basic_ostream"* nonnull align 8 dereferenceable(8) %111, i8* nonnull getelementptr inbounds ([2 x i8], [2 x i8]* @.str, i64 0, i64 0), i64 1)
  %113 = add nsw i64 %108, -1
  %114 = icmp eq i64 %113, 0
  br i1 %114, label %79, label %107

115:                                              ; preds = %101, %98
  %116 = phi i8 [ %100, %98 ], [ %106, %101 ]
  %117 = call nonnull align 8 dereferenceable(8) %"class.std::basic_ostream"* @_ZNSo3putEc(%"class.std::basic_ostream"* nonnull align 8 dereferenceable(8) %81, i8 signext %116)
  br label %121

118:                                              ; preds = %47, %44
  %119 = phi i8 [ %46, %44 ], [ %52, %47 ]
  %120 = call nonnull align 8 dereferenceable(8) %"class.std::basic_ostream"* @_ZNSo3putEc(%"class.std::basic_ostream"* nonnull align 8 dereferenceable(8) %27, i8 signext %119)
  br label %121

121:                                              ; preds = %115, %118
  %122 = phi %"class.std::basic_ostream"* [ %120, %118 ], [ %117, %115 ]
  %123 = call nonnull align 8 dereferenceable(8) %"class.std::basic_ostream"* @_ZNSo5flushEv(%"class.std::basic_ostream"* nonnull align 8 dereferenceable(8) %122)
  br label %124

124:                                              ; preds = %121, %8, %10, %64
  call void @llvm.lifetime.end.p0i8(i64 4, i8* nonnull %4) #7
  call void @llvm.lifetime.end.p0i8(i64 400, i8* nonnull %3) #7
  ret i32 0
}

; Function Attrs: argmemonly mustprogress nofree nosync nounwind willreturn
declare void @llvm.lifetime.start.p0i8(i64 immarg, i8* nocapture) #4

declare nonnull align 8 dereferenceable(16) %"class.std::basic_istream"* @_ZNSirsERi(%"class.std::basic_istream"* nonnull align 8 dereferenceable(16), i32* nonnull align 4 dereferenceable(4)) local_unnamed_addr #0

declare nonnull align 8 dereferenceable(8) %"class.std::basic_ostream"* @_ZNSolsEi(%"class.std::basic_ostream"* nonnull align 8 dereferenceable(8), i32) local_unnamed_addr #0

; Function Attrs: argmemonly mustprogress nofree nosync nounwind willreturn
declare void @llvm.lifetime.end.p0i8(i64 immarg, i8* nocapture) #4

declare nonnull align 8 dereferenceable(8) %"class.std::basic_ostream"* @_ZSt16__ostream_insertIcSt11char_traitsIcEERSt13basic_ostreamIT_T0_ES6_PKS3_l(%"class.std::basic_ostream"* nonnull align 8 dereferenceable(8), i8*, i64) local_unnamed_addr #0

declare nonnull align 8 dereferenceable(8) %"class.std::basic_ostream"* @_ZNSo3putEc(%"class.std::basic_ostream"* nonnull align 8 dereferenceable(8), i8 signext) local_unnamed_addr #0

declare nonnull align 8 dereferenceable(8) %"class.std::basic_ostream"* @_ZNSo5flushEv(%"class.std::basic_ostream"* nonnull align 8 dereferenceable(8)) local_unnamed_addr #0

; Function Attrs: noreturn
declare void @_ZSt16__throw_bad_castv() local_unnamed_addr #5

declare void @_ZNKSt5ctypeIcE13_M_widen_initEv(%"class.std::ctype"* nonnull align 8 dereferenceable(570)) local_unnamed_addr #0

; Function Attrs: sspstrong uwtable
define internal void @_GLOBAL__sub_I_5924.cpp() #6 section ".text.startup" {
  tail call void @_ZNSt8ios_base4InitC1Ev(%"class.std::ios_base::Init"* nonnull align 1 dereferenceable(1) @_ZStL8__ioinit)
  %1 = tail call i32 @__cxa_atexit(void (i8*)* bitcast (void (%"class.std::ios_base::Init"*)* @_ZNSt8ios_base4InitD1Ev to void (i8*)*), i8* getelementptr inbounds (%"class.std::ios_base::Init", %"class.std::ios_base::Init"* @_ZStL8__ioinit, i64 0, i32 0), i8* nonnull @__dso_handle) #7
  ret void
}


!llvm.module.flags = !{!0, !1, !2, !3}
!llvm.ident = !{!4}

!0 = !{i32 1, !"wchar_size", i32 4}
!1 = !{i32 7, !"PIC Level", i32 2}
!2 = !{i32 7, !"PIE Level", i32 2}
!3 = !{i32 7, !"uwtable", i32 1}
!4 = !{!"clang version 13.0.0"}
!5 = !{!6, !6, i64 0}
!6 = !{!"int", !7, i64 0}
!7 = !{!"omnipotent char", !8, i64 0}
!8 = !{!"Simple C++ TBAA"}
!9 = distinct !{!9, !10}
!10 = !{!"llvm.loop.mustprogress"}
!11 = !{!12, !12, i64 0}
!12 = !{!"vtable pointer", !8, i64 0}
!13 = !{!14, !15, i64 240}
!14 = !{!"_ZTSSt9basic_iosIcSt11char_traitsIcEE", !15, i64 216, !7, i64 224, !16, i64 225, !15, i64 232, !15, i64 240, !15, i64 248, !15, i64 256}
!15 = !{!"any pointer", !7, i64 0}
!16 = !{!"bool", !7, i64 0}
!17 = !{!18, !7, i64 56}
!18 = !{!"_ZTSSt5ctypeIcE", !15, i64 16, !16, i64 24, !15, i64 32, !15, i64 40, !15, i64 48, !7, i64 56, !7, i64 57, !7, i64 313, !7, i64 569}
!19 = !{!7, !7, i64 0}
!20 = distinct !{!20, !10}
